; Function Attrs: mustprogress nounwind uwtable
define dso_local void @_ZN4llvm13DWARFGdbIndex4dumpERNS_11raw_ostreamE(ptr noundef nonnull align 8 dereferenceable(126) %0, ptr noundef nonnull align 8 dereferenceable(48) %1) local_unnamed_addr #0 align 2 {
  %3 = getelementptr inbounds nuw i8, ptr %0, i64 125
  %4 = load i8, ptr %3, align 1
  %5 = trunc i8 %4 to i1
  br i1 %5, label %6, label %20

6:                                                ; preds = %2
  %7 = getelementptr inbounds nuw i8, ptr %1, i64 24
  %8 = load ptr, ptr %7, align 8
  %9 = getelementptr inbounds nuw i8, ptr %1, i64 32
  %10 = load ptr, ptr %9, align 8
  %11 = ptrtoint ptr %8 to i64
  %12 = ptrtoint ptr %10 to i64
  %13 = sub i64 %11, %12
  %14 = icmp ult i64 %13, 17
  br i1 %14, label %15, label %17

15:                                               ; preds = %6
  %16 = tail call noundef nonnull align 8 dereferenceable(48) ptr @_ZN4llvm11raw_ostream5writeEPKcm(ptr noundef nonnull align 8 dereferenceable(48) %1, ptr noundef nonnull @.str.12, i64 noundef 17) #14
  br label %_ZN4llvm11raw_ostreamlsEPKc.exit

17:                                               ; preds = %6
  tail call void @llvm.memcpy.p0.p0.i64(ptr noundef nonnull align 1 dereferenceable(17) %10, ptr noundef nonnull align 1 dereferenceable(17) @.str.12, i64 17, i1 false)
  %18 = load ptr, ptr %9, align 8
  %19 = getelementptr inbounds i8, ptr %18, i64 17
  store ptr %19, ptr %9, align 8
  br label %_ZN4llvm11raw_ostreamlsEPKc.exit

20:                                               ; preds = %2
  %21 = getelementptr inbounds nuw i8, ptr %0, i64 124
  %22 = load i8, ptr %21, align 4
  %23 = trunc i8 %22 to i1
  br i1 %23, label %24, label %_ZN4llvm11raw_ostreamlsEPKc.exit

24:                                               ; preds = %20
  %25 = getelementptr inbounds nuw i8, ptr %1, i64 24
  %26 = load ptr, ptr %25, align 8
  %27 = getelementptr inbounds nuw i8, ptr %1, i64 32
  %28 = load ptr, ptr %27, align 8
  %29 = ptrtoint ptr %26 to i64
  %30 = ptrtoint ptr %28 to i64
  %31 = sub i64 %29, %30
  %32 = icmp ult i64 %31, 12
  br i1 %32, label %33, label %35

33:                                               ; preds = %24
  %34 = tail call noundef nonnull align 8 dereferenceable(48) ptr @_ZN4llvm11raw_ostream5writeEPKcm(ptr noundef nonnull align 8 dereferenceable(48) %1, ptr noundef nonnull @.str.13, i64 noundef 12) #14
  br label %_ZN4llvm11raw_ostreamlsEPKc.exit10

35:                                               ; preds = %24
  tail call void @llvm.memcpy.p0.p0.i64(ptr noundef nonnull align 1 dereferenceable(12) %28, ptr noundef nonnull align 1 dereferenceable(12) @.str.13, i64 12, i1 false)
  %36 = load ptr, ptr %27, align 8
  %37 = getelementptr inbounds i8, ptr %36, i64 12
  store ptr %37, ptr %27, align 8
  br label %_ZN4llvm11raw_ostreamlsEPKc.exit10

_ZN4llvm11raw_ostreamlsEPKc.exit10:               ; preds = %33, %35
  %.0.i.i9 = phi ptr [ %34, %33 ], [ %1, %35 ]
  %38 = load i32, ptr %0, align 8
  %39 = zext i32 %38 to i64
  %40 = tail call noundef nonnull align 8 dereferenceable(48) ptr @_ZN4llvm11raw_ostreamlsEm(ptr noundef nonnull align 8 dereferenceable(48) %.0.i.i9, i64 noundef %39) #14
  %41 = getelementptr inbounds nuw i8, ptr %40, i64 32
  %42 = load ptr, ptr %41, align 8
  %43 = getelementptr inbounds nuw i8, ptr %40, i64 24
  %44 = load ptr, ptr %43, align 8
  %.not.i = icmp ult ptr %42, %44
  br i1 %.not.i, label %47, label %45

45:                                               ; preds = %_ZN4llvm11raw_ostreamlsEPKc.exit10
  %46 = tail call noundef nonnull align 8 dereferenceable(48) ptr @_ZN4llvm11raw_ostream5writeEh(ptr noundef nonnull align 8 dereferenceable(48) %40, i8 noundef zeroext 10) #14
  br label %_ZN4llvm11raw_ostreamlsEc.exit

47:                                               ; preds = %_ZN4llvm11raw_ostreamlsEPKc.exit10
  %48 = getelementptr inbounds i8, ptr %42, i64 1
  store ptr %48, ptr %41, align 8
  store i8 10, ptr %42, align 1
  br label %_ZN4llvm11raw_ostreamlsEc.exit

_ZN4llvm11raw_ostreamlsEc.exit:                   ; preds = %45, %47
  tail call void @_ZNK4llvm13DWARFGdbIndex10dumpCUListERNS_11raw_ostreamE(ptr noundef nonnull align 8 dereferenceable(126) %0, ptr noundef nonnull align 8 dereferenceable(48) %1)
  tail call void @_ZNK4llvm13DWARFGdbIndex10dumpTUListERNS_11raw_ostreamE(ptr noundef nonnull align 8 dereferenceable(126) %0, ptr noundef nonnull align 8 dereferenceable(48) %1)
  tail call void @_ZNK4llvm13DWARFGdbIndex15dumpAddressAreaERNS_11raw_ostreamE(ptr noundef nonnull align 8 dereferenceable(126) %0, ptr noundef nonnull align 8 dereferenceable(48) %1)
  tail call void @_ZNK4llvm13DWARFGdbIndex15dumpSymbolTableERNS_11raw_ostreamE(ptr noundef nonnull align 8 dereferenceable(126) %0, ptr noundef nonnull align 8 dereferenceable(48) %1)
  tail call void @_ZNK4llvm13DWARFGdbIndex16dumpConstantPoolERNS_11raw_ostreamE(ptr noundef nonnull align 8 dereferenceable(126) %0, ptr noundef nonnull align 8 dereferenceable(48) %1)
  br label %_ZN4llvm11raw_ostreamlsEPKc.exit

_ZN4llvm11raw_ostreamlsEPKc.exit:                 ; preds = %17, %15, %_ZN4llvm11raw_ostreamlsEc.exit, %20
  ret void
}